target datalayout = "e-m:e-p270:32:32-p271:32:32-p272:64:64-i64:64-i128:128-f80:128-n8:16:32:64-S128"
target triple = "x86_64-pc-linux-gnu"

@.str = private unnamed_addr constant [34 x i8] c"assertion failed: l <= sizeof(iv)\00", align 1
@.str.2 = private unnamed_addr constant [30 x i8] c"../openssl/crypto/evp/e_rc2.c\00", align 1
@__func__.rc2_magic_to_meth = private unnamed_addr constant [18 x i8] c"rc2_magic_to_meth\00", align 1

; Function Attrs: nounwind uwtable
define internal i32 @rc2_magic_to_meth(i32 noundef %0) #0 {
  %2 = alloca i32, align 4
  %3 = alloca i32, align 4
  store i32 %0, ptr %3, align 4, !tbaa !10
  %4 = load i32, ptr %3, align 4, !tbaa !10
  %5 = icmp eq i32 %4, 58
  br i1 %5, label %6, label %7

6:                                                ; preds = %1
  store i32 128, ptr %2, align 4
  br label %16

7:                                                ; preds = %1
  %8 = load i32, ptr %3, align 4, !tbaa !10
  %9 = icmp eq i32 %8, 120
  br i1 %9, label %10, label %11

10:                                               ; preds = %7
  store i32 64, ptr %2, align 4
  br label %16

11:                                               ; preds = %7
  %12 = load i32, ptr %3, align 4, !tbaa !10
  %13 = icmp eq i32 %12, 160
  br i1 %13, label %14, label %15

14:                                               ; preds = %11
  store i32 40, ptr %2, align 4
  br label %16

15:                                               ; preds = %11
  call void @ERR_new()
  call void @ERR_set_debug(ptr noundef @.str.2, i32 noundef 125, ptr noundef @__func__.rc2_magic_to_meth)
  call void (i32, i32, ptr, ...) @ERR_set_error(i32 noundef 6, i32 noundef 108, ptr noundef null)
  store i32 0, ptr %2, align 4
  br label %16

16:                                               ; preds = %15, %14, %10, %6
  %17 = load i32, ptr %2, align 4
  ret i32 %17
}

; Function Attrs: nounwind uwtable
define internal i32 @rc2_get_asn1_type_and_iv(ptr noundef %0, ptr noundef %1) #0 {
  %3 = alloca i32, align 4
  %4 = alloca ptr, align 8
  %5 = alloca ptr, align 8
  %6 = alloca i64, align 8
  %7 = alloca i32, align 4
  %8 = alloca i32, align 4
  %9 = alloca i32, align 4
  %10 = alloca [16 x i8], align 16
  %11 = alloca i32, align 4
  store ptr %0, ptr %4, align 8, !tbaa !3
  store ptr %1, ptr %5, align 8, !tbaa !19
  call void @llvm.lifetime.start.p0(i64 8, ptr %6) #4
  store i64 0, ptr %6, align 8, !tbaa !15
  call void @llvm.lifetime.start.p0(i64 4, ptr %7) #4
  store i32 0, ptr %7, align 4, !tbaa !10
  call void @llvm.lifetime.start.p0(i64 4, ptr %8) #4
  call void @llvm.lifetime.start.p0(i64 4, ptr %9) #4
  call void @llvm.lifetime.start.p0(i64 16, ptr %10) #4
  %12 = load ptr, ptr %5, align 8, !tbaa !19
  %13 = icmp ne ptr %12, null
  br i1 %13, label %14, label %61

14:                                               ; preds = %2
  %15 = load ptr, ptr %4, align 8, !tbaa !3
  %16 = call i32 @EVP_CIPHER_CTX_get_iv_length(ptr noundef %15)
  store i32 %16, ptr %9, align 4, !tbaa !10
  %17 = load i32, ptr %9, align 4, !tbaa !10
  %18 = zext i32 %17 to i64
  %19 = icmp ule i64 %18, 16
  br i1 %19, label %20, label %21

20:                                               ; preds = %14
  br label %23

21:                                               ; preds = %14
  call void @OPENSSL_die(ptr noundef @.str, ptr noundef @.str.2, i32 noundef 140) #5
  unreachable

22:                                               ; No predecessors!
  br label %23

23:                                               ; preds = %22, %20
  %24 = load ptr, ptr %5, align 8, !tbaa !19
  %25 = getelementptr inbounds [16 x i8], ptr %10, i64 0, i64 0
  %26 = load i32, ptr %9, align 4, !tbaa !10
  %27 = call i32 @ASN1_TYPE_get_int_octetstring(ptr noundef %24, ptr noundef %6, ptr noundef %25, i32 noundef %26)
  store i32 %27, ptr %7, align 4, !tbaa !10
  %28 = load i32, ptr %7, align 4, !tbaa !10
  %29 = load i32, ptr %9, align 4, !tbaa !10
  %30 = icmp ne i32 %28, %29
  br i1 %30, label %31, label %32

31:                                               ; preds = %23
  store i32 -1, ptr %3, align 4
  store i32 1, ptr %11, align 4
  br label %63

32:                                               ; preds = %23
  %33 = load i64, ptr %6, align 8, !tbaa !15
  %34 = trunc i64 %33 to i32
  %35 = call i32 @rc2_magic_to_meth(i32 noundef %34)
  store i32 %35, ptr %8, align 4, !tbaa !10
  %36 = load i32, ptr %8, align 4, !tbaa !10
  %37 = icmp ne i32 %36, 0
  br i1 %37, label %39, label %38

38:                                               ; preds = %32
  store i32 -1, ptr %3, align 4
  store i32 1, ptr %11, align 4
  br label %63

39:                                               ; preds = %32
  %40 = load i32, ptr %7, align 4, !tbaa !10
  %41 = icmp sgt i32 %40, 0
  br i1 %41, label %42, label %48

42:                                               ; preds = %39
  %43 = load ptr, ptr %4, align 8, !tbaa !3
  %44 = getelementptr inbounds [16 x i8], ptr %10, i64 0, i64 0
  %45 = call i32 @EVP_CipherInit_ex(ptr noundef %43, ptr noundef null, ptr noundef null, ptr noundef null, ptr noundef %44, i32 noundef -1)
  %46 = icmp ne i32 %45, 0
  br i1 %46, label %48, label %47

47:                                               ; preds = %42
  store i32 -1, ptr %3, align 4
  store i32 1, ptr %11, align 4
  br label %63

48:                                               ; preds = %42, %39
  %49 = load ptr, ptr %4, align 8, !tbaa !3
  %50 = load i32, ptr %8, align 4, !tbaa !10
  %51 = call i32 @EVP_CIPHER_CTX_ctrl(ptr noundef %49, i32 noundef 3, i32 noundef %50, ptr noundef null)
  %52 = icmp sle i32 %51, 0
  br i1 %52, label %59, label %53

53:                                               ; preds = %48
  %54 = load ptr, ptr %4, align 8, !tbaa !3
  %55 = load i32, ptr %8, align 4, !tbaa !10
  %56 = sdiv i32 %55, 8
  %57 = call i32 @EVP_CIPHER_CTX_set_key_length(ptr noundef %54, i32 noundef %56)
  %58 = icmp sle i32 %57, 0
  br i1 %58, label %59, label %60

59:                                               ; preds = %53, %48
  store i32 -1, ptr %3, align 4
  store i32 1, ptr %11, align 4
  br label %63

60:                                               ; preds = %53
  br label %61

61:                                               ; preds = %60, %2
  %62 = load i32, ptr %7, align 4, !tbaa !10
  store i32 %62, ptr %3, align 4
  store i32 1, ptr %11, align 4
  br label %63

63:                                               ; preds = %61, %59, %47, %38, %31
  call void @llvm.lifetime.end.p0(i64 16, ptr %10) #4
  call void @llvm.lifetime.end.p0(i64 4, ptr %9) #4
  call void @llvm.lifetime.end.p0(i64 4, ptr %8) #4
  call void @llvm.lifetime.end.p0(i64 4, ptr %7) #4
  call void @llvm.lifetime.end.p0(i64 8, ptr %6) #4
  %64 = load i32, ptr %3, align 4
  ret i32 %64
}