; Function Attrs: nounwind uwtable
define internal range(i32 -1, 17) i32 @rc2_get_asn1_type_and_iv(ptr noundef %0, ptr noundef %1) #1 {
  %3 = alloca i64, align 8
  %4 = alloca [16 x i8], align 16
  call void @llvm.lifetime.start.p0(i64 8, ptr nonnull %3) #6
  store i64 0, ptr %3, align 8, !tbaa !12
  call void @llvm.lifetime.start.p0(i64 16, ptr nonnull %4) #6
  %.not = icmp eq ptr %1, null
  br i1 %.not, label %26, label %5

5:                                                ; preds = %2
  %6 = tail call i32 @EVP_CIPHER_CTX_get_iv_length(ptr noundef %0) #6
  %7 = icmp ult i32 %6, 17
  br i1 %7, label %9, label %8

8:                                                ; preds = %5
  tail call void @OPENSSL_die(ptr noundef nonnull @.str, ptr noundef nonnull @.str.2, i32 noundef 140) #7
  unreachable

9:                                                ; preds = %5
  %10 = call i32 @ASN1_TYPE_get_int_octetstring(ptr noundef nonnull %1, ptr noundef nonnull %3, ptr noundef nonnull %4, i32 noundef %6) #6
  %.not19 = icmp eq i32 %10, %6
  br i1 %.not19, label %11, label %26

11:                                               ; preds = %9
  %12 = load i64, ptr %3, align 8, !tbaa !12
  %13 = trunc i64 %12 to i32
  switch i32 %13, label %rc2_magic_to_meth.exit [
    i32 58, label %16
    i32 120, label %14
    i32 160, label %15
  ]

14:                                               ; preds = %11
  br label %16

15:                                               ; preds = %11
  br label %16

rc2_magic_to_meth.exit:                           ; preds = %11
  call void @ERR_new() #6
  call void @ERR_set_debug(ptr noundef nonnull @.str.2, i32 noundef 125, ptr noundef nonnull @__func__.rc2_magic_to_meth) #6
  call void (i32, i32, ptr, ...) @ERR_set_error(i32 noundef 6, i32 noundef 108, ptr noundef null) #6
  br label %26

16:                                               ; preds = %14, %15, %11
  %.0.i.ph = phi i32 [ 128, %11 ], [ 40, %15 ], [ 64, %14 ]
  %.not25 = icmp eq i32 %6, 0
  br i1 %.not25, label %19, label %17

17:                                               ; preds = %16
  %18 = call i32 @EVP_CipherInit_ex(ptr noundef %0, ptr noundef null, ptr noundef null, ptr noundef null, ptr noundef nonnull %4, i32 noundef -1) #6
  %.not21 = icmp eq i32 %18, 0
  br i1 %.not21, label %26, label %19

19:                                               ; preds = %17, %16
  %20 = call i32 @EVP_CIPHER_CTX_ctrl(ptr noundef %0, i32 noundef 3, i32 noundef %.0.i.ph, ptr noundef null) #6
  %21 = icmp slt i32 %20, 1
  br i1 %21, label %26, label %22

22:                                               ; preds = %19
  %23 = lshr exact i32 %.0.i.ph, 3
  %24 = call i32 @EVP_CIPHER_CTX_set_key_length(ptr noundef %0, i32 noundef %23) #6
  %25 = icmp slt i32 %24, 1
  %spec.select = select i1 %25, i32 -1, i32 %6
  br label %26

26:                                               ; preds = %rc2_magic_to_meth.exit, %22, %2, %19, %17, %9
  %.0 = phi i32 [ -1, %9 ], [ -1, %rc2_magic_to_meth.exit ], [ -1, %17 ], [ -1, %19 ], [ 0, %2 ], [ %spec.select, %22 ]
  call void @llvm.lifetime.end.p0(i64 16, ptr nonnull %4) #6
  call void @llvm.lifetime.end.p0(i64 8, ptr nonnull %3) #6
  ret i32 %.0
}